target datalayout = "e-m:e-p270:32:32-p271:32:32-p272:64:64-i64:64-i128:128-f80:128-n8:16:32:64-S128"
target triple = "x86_64-pc-linux-gnu"

%struct.archive_read = type { %struct.archive, ptr, i32, i64, i64, %struct.archive_read_client, [16 x %struct.archive_read_filter_bidder], ptr, i32, i64, i32, i32, [16 x %struct.archive_format_descriptor], ptr, ptr, ptr, %struct.anon }
%struct.archive = type { i32, i32, ptr, i32, ptr, i32, i32, ptr, %struct.archive_string, ptr, i32, i32, ptr, ptr, i64, i64, i64, i8, i64 }
%struct.archive_string = type { ptr, i64, i64 }
%struct.archive_read_client = type { ptr, ptr, ptr, ptr, ptr, ptr, i32, i32, i64, ptr }
%struct.archive_read_filter_bidder = type { ptr, ptr, ptr }
%struct.archive_format_descriptor = type { ptr, ptr, ptr, ptr, ptr, ptr, ptr, ptr, ptr, ptr, ptr }
%struct.anon = type { ptr, ptr, i32, ptr, ptr }

@.str.16 = private unnamed_addr constant [23 x i8] c"archive_read_data_skip\00", align 1

; Function Attrs: nounwind uwtable
define dso_local i32 @archive_read_data_skip(ptr noundef %0) #0 {
  %2 = alloca i32, align 4
  %3 = alloca ptr, align 8
  %4 = alloca ptr, align 8
  %5 = alloca i32, align 4
  %6 = alloca ptr, align 8
  %7 = alloca i64, align 8
  %8 = alloca i64, align 8
  %9 = alloca i32, align 4
  %10 = alloca i32, align 4
  store ptr %0, ptr %3, align 8, !tbaa !31
  call void @llvm.lifetime.start.p0(i64 8, ptr %4) #11
  %11 = load ptr, ptr %3, align 8, !tbaa !31
  store ptr %11, ptr %4, align 8, !tbaa !4
  call void @llvm.lifetime.start.p0(i64 4, ptr %5) #11
  call void @llvm.lifetime.start.p0(i64 8, ptr %6) #11
  call void @llvm.lifetime.start.p0(i64 8, ptr %7) #11
  call void @llvm.lifetime.start.p0(i64 8, ptr %8) #11
  br label %12

12:                                               ; preds = %1
  call void @llvm.lifetime.start.p0(i64 4, ptr %9) #11
  %13 = load ptr, ptr %3, align 8, !tbaa !31
  %14 = call i32 @__archive_check_magic(ptr noundef %13, i32 noundef 14594245, i32 noundef 4, ptr noundef @.str.16)
  store i32 %14, ptr %9, align 4, !tbaa !38
  %15 = load i32, ptr %9, align 4, !tbaa !38
  %16 = icmp eq i32 %15, -30
  br i1 %16, label %17, label %18

17:                                               ; preds = %12
  store i32 -30, ptr %2, align 4
  store i32 1, ptr %10, align 4
  br label %19

18:                                               ; preds = %12
  store i32 0, ptr %10, align 4
  br label %19

19:                                               ; preds = %18, %17
  call void @llvm.lifetime.end.p0(i64 4, ptr %9) #11
  %20 = load i32, ptr %10, align 4
  switch i32 %20, label %55 [
    i32 0, label %21
  ]

21:                                               ; preds = %19
  br label %22

22:                                               ; preds = %21
  br label %23

23:                                               ; preds = %22
  %24 = load ptr, ptr %4, align 8, !tbaa !4
  %25 = getelementptr inbounds nuw %struct.archive_read, ptr %24, i32 0, i32 13
  %26 = load ptr, ptr %25, align 8, !tbaa !63
  %27 = getelementptr inbounds nuw %struct.archive_format_descriptor, ptr %26, i32 0, i32 6
  %28 = load ptr, ptr %27, align 8, !tbaa !103
  %29 = icmp ne ptr %28, null
  br i1 %29, label %30, label %38

30:                                               ; preds = %23
  %31 = load ptr, ptr %4, align 8, !tbaa !4
  %32 = getelementptr inbounds nuw %struct.archive_read, ptr %31, i32 0, i32 13
  %33 = load ptr, ptr %32, align 8, !tbaa !63
  %34 = getelementptr inbounds nuw %struct.archive_format_descriptor, ptr %33, i32 0, i32 6
  %35 = load ptr, ptr %34, align 8, !tbaa !103
  %36 = load ptr, ptr %4, align 8, !tbaa !4
  %37 = call i32 %35(ptr noundef %36)
  store i32 %37, ptr %5, align 4, !tbaa !38
  br label %46

38:                                               ; preds = %23
  br label %39

39:                                               ; preds = %44, %38
  %40 = load ptr, ptr %4, align 8, !tbaa !4
  %41 = getelementptr inbounds nuw %struct.archive_read, ptr %40, i32 0, i32 0
  %42 = call i32 @archive_read_data_block(ptr noundef %41, ptr noundef %6, ptr noundef %7, ptr noundef %8)
  store i32 %42, ptr %5, align 4, !tbaa !38
  %43 = icmp eq i32 %42, 0
  br i1 %43, label %44, label %45

44:                                               ; preds = %39
  br label %39, !llvm.loop !104

45:                                               ; preds = %39
  br label %46

46:                                               ; preds = %45, %30
  %47 = load i32, ptr %5, align 4, !tbaa !38
  %48 = icmp eq i32 %47, 1
  br i1 %48, label %49, label %50

49:                                               ; preds = %46
  store i32 0, ptr %5, align 4, !tbaa !38
  br label %50

50:                                               ; preds = %49, %46
  %51 = load ptr, ptr %4, align 8, !tbaa !4
  %52 = getelementptr inbounds nuw %struct.archive_read, ptr %51, i32 0, i32 0
  %53 = getelementptr inbounds nuw %struct.archive, ptr %52, i32 0, i32 1
  store i32 2, ptr %53, align 4, !tbaa !27
  %54 = load i32, ptr %5, align 4, !tbaa !38
  store i32 %54, ptr %2, align 4
  store i32 1, ptr %10, align 4
  br label %55

55:                                               ; preds = %50, %19
  call void @llvm.lifetime.end.p0(i64 8, ptr %8) #11
  call void @llvm.lifetime.end.p0(i64 8, ptr %7) #11
  call void @llvm.lifetime.end.p0(i64 8, ptr %6) #11
  call void @llvm.lifetime.end.p0(i64 4, ptr %5) #11
  call void @llvm.lifetime.end.p0(i64 8, ptr %4) #11
  %56 = load i32, ptr %2, align 4
  ret i32 %56
}