; Function Attrs: nounwind uwtable
define dso_local i32 @archive_read_data_skip(ptr noundef %0) local_unnamed_addr #0 {
  %2 = alloca ptr, align 8
  %3 = alloca i64, align 8
  %4 = alloca i64, align 8
  call void @llvm.lifetime.start.p0(i64 8, ptr nonnull %2) #15
  call void @llvm.lifetime.start.p0(i64 8, ptr nonnull %3) #15
  call void @llvm.lifetime.start.p0(i64 8, ptr nonnull %4) #15
  %5 = tail call i32 @__archive_check_magic(ptr noundef %0, i32 noundef 14594245, i32 noundef 4, ptr noundef nonnull @.str.16) #15
  %.not = icmp eq i32 %5, -30
  br i1 %.not, label %17, label %6

6:                                                ; preds = %1
  %7 = getelementptr inbounds nuw i8, ptr %0, i64 2072
  %8 = load ptr, ptr %7, align 8, !tbaa !73
  %9 = getelementptr inbounds nuw i8, ptr %8, i64 48
  %10 = load ptr, ptr %9, align 8, !tbaa !95
  %.not15 = icmp eq ptr %10, null
  br i1 %.not15, label %.preheader, label %11

11:                                               ; preds = %6
  %12 = tail call i32 %10(ptr noundef nonnull %0) #15
  br label %.loopexit

.preheader:                                       ; preds = %6, %.preheader
  %13 = call i32 @archive_read_data_block(ptr noundef %0, ptr noundef nonnull %2, ptr noundef nonnull %3, ptr noundef nonnull %4) #15
  %14 = icmp eq i32 %13, 0
  br i1 %14, label %.preheader, label %.loopexit, !llvm.loop !96

.loopexit:                                        ; preds = %.preheader, %11
  %.012 = phi i32 [ %12, %11 ], [ %13, %.preheader ]
  %15 = icmp eq i32 %.012, 1
  %spec.store.select = select i1 %15, i32 0, i32 %.012
  %16 = getelementptr inbounds nuw i8, ptr %0, i64 4
  store i32 2, ptr %16, align 4, !tbaa !25
  br label %17

17:                                               ; preds = %1, %.loopexit
  %.1 = phi i32 [ %spec.store.select, %.loopexit ], [ -30, %1 ]
  call void @llvm.lifetime.end.p0(i64 8, ptr nonnull %4) #15
  call void @llvm.lifetime.end.p0(i64 8, ptr nonnull %3) #15
  call void @llvm.lifetime.end.p0(i64 8, ptr nonnull %2) #15
  ret i32 %.1
}